target datalayout = "e-m:e-p270:32:32-p271:32:32-p272:64:64-i64:64-i128:128-f80:128-n8:16:32:64-S128"
target triple = "x86_64-pc-linux-gnu"

%struct._extcap_token_sentence = type { ptr, ptr }
%struct._extcap_value = type { i32, ptr, ptr, i8, i8, ptr }

@.str.1 = private unnamed_addr constant [13 x i8] c"^.*([yt1-9])\00", align 1
@.str.5 = private unnamed_addr constant [6 x i8] c"value\00", align 1
@.str.31 = private unnamed_addr constant [3 x i8] c"%d\00", align 1
@.str.51 = private unnamed_addr constant [26 x i8] c"no arg in VALUE sentence\0A\00", align 1
@.str.52 = private unnamed_addr constant [31 x i8] c"invalid arg in VALUE sentence\0A\00", align 1

; Function Attrs: null_pointer_is_valid sspstrong uwtable
define internal ptr @extcap_parse_value_sentence(ptr noundef %0) #0 {
  %2 = alloca ptr, align 8
  %3 = alloca ptr, align 8
  %4 = alloca ptr, align 8
  %5 = alloca ptr, align 8
  %6 = alloca i32, align 4
  %7 = alloca i32, align 4
  %8 = alloca i64, align 8
  %9 = alloca i64, align 8
  %10 = alloca ptr, align 8
  %11 = alloca ptr, align 8
  store ptr %0, ptr %3, align 8
  call void @llvm.lifetime.start.p0(i64 8, ptr %4) #10
  store ptr null, ptr %4, align 8
  call void @llvm.lifetime.start.p0(i64 8, ptr %5) #10
  store ptr null, ptr %5, align 8
  call void @llvm.lifetime.start.p0(i64 4, ptr %6) #10
  store i32 0, ptr %6, align 4
  %12 = load ptr, ptr %3, align 8
  %13 = icmp eq ptr %12, null
  br i1 %13, label %14, label %16

14:                                               ; preds = %1
  %15 = load ptr, ptr %4, align 8
  store ptr %15, ptr %2, align 8
  store i32 1, ptr %7, align 4
  br label %130

16:                                               ; preds = %1
  %17 = load ptr, ptr %3, align 8
  %18 = getelementptr inbounds nuw %struct._extcap_token_sentence, ptr %17, i32 0, i32 0
  %19 = load ptr, ptr %18, align 8
  %20 = call i32 @g_ascii_strcasecmp(ptr noundef %19, ptr noundef @.str.5)
  %21 = icmp eq i32 %20, 0
  br i1 %21, label %22, label %128

22:                                               ; preds = %16
  %23 = load ptr, ptr %3, align 8
  %24 = getelementptr inbounds nuw %struct._extcap_token_sentence, ptr %23, i32 0, i32 1
  %25 = load ptr, ptr %24, align 8
  %26 = call ptr @g_hash_table_lookup(ptr noundef %25, ptr noundef inttoptr (i64 5 to ptr))
  store ptr %26, ptr %5, align 8
  %27 = icmp eq ptr %26, null
  br i1 %27, label %28, label %30

28:                                               ; preds = %22
  %29 = call i32 (i32, ptr, ...) @__printf_chk(i32 noundef 2, ptr noundef @.str.51)
  store ptr null, ptr %2, align 8
  store i32 1, ptr %7, align 4
  br label %130

30:                                               ; preds = %22
  %31 = load ptr, ptr %5, align 8
  %32 = call i32 (ptr, ptr, ...) @__isoc99_sscanf(ptr noundef %31, ptr noundef @.str.31, ptr noundef %6) #10
  %33 = icmp ne i32 %32, 1
  br i1 %33, label %34, label %36

34:                                               ; preds = %30
  %35 = call i32 (i32, ptr, ...) @__printf_chk(i32 noundef 2, ptr noundef @.str.52)
  store ptr null, ptr %2, align 8
  store i32 1, ptr %7, align 4
  br label %130

36:                                               ; preds = %30
  call void @llvm.lifetime.start.p0(i64 8, ptr %8) #10
  store i64 1, ptr %8, align 8
  call void @llvm.lifetime.start.p0(i64 8, ptr %9) #10
  store i64 40, ptr %9, align 8
  call void @llvm.lifetime.start.p0(i64 8, ptr %10) #10
  %37 = load i64, ptr %9, align 8
  %38 = icmp eq i64 %37, 1
  br i1 %38, label %39, label %42

39:                                               ; preds = %36
  %40 = load i64, ptr %8, align 8
  %41 = call noalias ptr @g_malloc0(i64 noundef %40) #11
  store ptr %41, ptr %10, align 8
  br label %63

42:                                               ; preds = %36
  %43 = load i64, ptr %8, align 8
  %44 = call i1 @llvm.is.constant.i64(i64 %43)
  br i1 %44, label %45, label %58

45:                                               ; preds = %42
  %46 = load i64, ptr %9, align 8
  %47 = icmp eq i64 %46, 0
  br i1 %47, label %53, label %48

48:                                               ; preds = %45
  %49 = load i64, ptr %8, align 8
  %50 = load i64, ptr %9, align 8
  %51 = udiv i64 -1, %50
  %52 = icmp ule i64 %49, %51
  br i1 %52, label %53, label %58

53:                                               ; preds = %48, %45
  %54 = load i64, ptr %8, align 8
  %55 = load i64, ptr %9, align 8
  %56 = mul i64 %54, %55
  %57 = call noalias ptr @g_malloc0(i64 noundef %56) #11
  store ptr %57, ptr %10, align 8
  br label %62

58:                                               ; preds = %48, %42
  %59 = load i64, ptr %8, align 8
  %60 = load i64, ptr %9, align 8
  %61 = call noalias ptr @g_malloc0_n(i64 noundef %59, i64 noundef %60) #12
  store ptr %61, ptr %10, align 8
  br label %62

62:                                               ; preds = %58, %53
  br label %63

63:                                               ; preds = %62, %39
  %64 = load ptr, ptr %10, align 8
  store ptr %64, ptr %11, align 8
  call void @llvm.lifetime.end.p0(i64 8, ptr %10) #10
  call void @llvm.lifetime.end.p0(i64 8, ptr %9) #10
  call void @llvm.lifetime.end.p0(i64 8, ptr %8) #10
  %65 = load ptr, ptr %11, align 8
  store ptr %65, ptr %4, align 8
  %66 = load i32, ptr %6, align 4
  %67 = load ptr, ptr %4, align 8
  %68 = getelementptr inbounds nuw %struct._extcap_value, ptr %67, i32 0, i32 0
  store i32 %66, ptr %68, align 8
  %69 = load ptr, ptr %3, align 8
  %70 = getelementptr inbounds nuw %struct._extcap_token_sentence, ptr %69, i32 0, i32 1
  %71 = load ptr, ptr %70, align 8
  %72 = call ptr @g_hash_table_lookup(ptr noundef %71, ptr noundef inttoptr (i64 7 to ptr))
  store ptr %72, ptr %5, align 8
  %73 = icmp eq ptr %72, null
  br i1 %73, label %74, label %76

74:                                               ; preds = %63
  %75 = load ptr, ptr %4, align 8
  call void @extcap_free_value(ptr noundef %75)
  store ptr null, ptr %2, align 8
  store i32 1, ptr %7, align 4
  br label %130

76:                                               ; preds = %63
  %77 = load ptr, ptr %5, align 8
  %78 = call noalias ptr @g_strdup(ptr noundef %77)
  %79 = load ptr, ptr %4, align 8
  %80 = getelementptr inbounds nuw %struct._extcap_value, ptr %79, i32 0, i32 1
  store ptr %78, ptr %80, align 8
  %81 = load ptr, ptr %3, align 8
  %82 = getelementptr inbounds nuw %struct._extcap_token_sentence, ptr %81, i32 0, i32 1
  %83 = load ptr, ptr %82, align 8
  %84 = call ptr @g_hash_table_lookup(ptr noundef %83, ptr noundef inttoptr (i64 3 to ptr))
  store ptr %84, ptr %5, align 8
  %85 = icmp eq ptr %84, null
  br i1 %85, label %86, label %88

86:                                               ; preds = %76
  %87 = load ptr, ptr %4, align 8
  call void @extcap_free_value(ptr noundef %87)
  store ptr null, ptr %2, align 8
  store i32 1, ptr %7, align 4
  br label %130

88:                                               ; preds = %76
  %89 = load ptr, ptr %5, align 8
  %90 = call noalias ptr @g_strdup(ptr noundef %89)
  %91 = load ptr, ptr %4, align 8
  %92 = getelementptr inbounds nuw %struct._extcap_value, ptr %91, i32 0, i32 2
  store ptr %90, ptr %92, align 8
  %93 = load ptr, ptr %3, align 8
  %94 = getelementptr inbounds nuw %struct._extcap_token_sentence, ptr %93, i32 0, i32 1
  %95 = load ptr, ptr %94, align 8
  %96 = call ptr @g_hash_table_lookup(ptr noundef %95, ptr noundef inttoptr (i64 16 to ptr))
  store ptr %96, ptr %5, align 8
  %97 = icmp ne ptr %96, null
  br i1 %97, label %98, label %103

98:                                               ; preds = %88
  %99 = load ptr, ptr %5, align 8
  %100 = call noalias ptr @g_strdup(ptr noundef %99)
  %101 = load ptr, ptr %4, align 8
  %102 = getelementptr inbounds nuw %struct._extcap_value, ptr %101, i32 0, i32 5
  store ptr %100, ptr %102, align 8
  br label %103

103:                                              ; preds = %98, %88
  %104 = load ptr, ptr %3, align 8
  %105 = getelementptr inbounds nuw %struct._extcap_token_sentence, ptr %104, i32 0, i32 1
  %106 = load ptr, ptr %105, align 8
  %107 = call ptr @g_hash_table_lookup(ptr noundef %106, ptr noundef inttoptr (i64 6 to ptr))
  store ptr %107, ptr %5, align 8
  %108 = icmp ne ptr %107, null
  br i1 %108, label %109, label %115

109:                                              ; preds = %103
  %110 = load ptr, ptr %5, align 8
  %111 = call zeroext i1 @matches_regex(ptr noundef @.str.1, ptr noundef %110)
  %112 = load ptr, ptr %4, align 8
  %113 = getelementptr inbounds nuw %struct._extcap_value, ptr %112, i32 0, i32 4
  %114 = zext i1 %111 to i8
  store i8 %114, ptr %113, align 1
  br label %115

115:                                              ; preds = %109, %103
  %116 = load ptr, ptr %3, align 8
  %117 = getelementptr inbounds nuw %struct._extcap_token_sentence, ptr %116, i32 0, i32 1
  %118 = load ptr, ptr %117, align 8
  %119 = call ptr @g_hash_table_lookup(ptr noundef %118, ptr noundef inttoptr (i64 12 to ptr))
  store ptr %119, ptr %5, align 8
  %120 = icmp ne ptr %119, null
  br i1 %120, label %121, label %127

121:                                              ; preds = %115
  %122 = load ptr, ptr %5, align 8
  %123 = call zeroext i1 @matches_regex(ptr noundef @.str.1, ptr noundef %122)
  %124 = load ptr, ptr %4, align 8
  %125 = getelementptr inbounds nuw %struct._extcap_value, ptr %124, i32 0, i32 3
  %126 = zext i1 %123 to i8
  store i8 %126, ptr %125, align 8
  br label %127

127:                                              ; preds = %121, %115
  br label %128

128:                                              ; preds = %127, %16
  %129 = load ptr, ptr %4, align 8
  store ptr %129, ptr %2, align 8
  store i32 1, ptr %7, align 4
  br label %130

130:                                              ; preds = %128, %86, %74, %34, %28, %14
  call void @llvm.lifetime.end.p0(i64 4, ptr %6) #10
  call void @llvm.lifetime.end.p0(i64 8, ptr %5) #10
  call void @llvm.lifetime.end.p0(i64 8, ptr %4) #10
  %131 = load ptr, ptr %2, align 8
  ret ptr %131
}