; Function Attrs: null_pointer_is_valid sspstrong uwtable
define internal fastcc noundef ptr @extcap_parse_value_sentence(ptr noundef readonly captures(address_is_null) %0) unnamed_addr #0 {
  %2 = alloca i32, align 4
  call void @llvm.lifetime.start.p0(i64 4, ptr nonnull %2) #9
  store i32 0, ptr %2, align 4
  %3 = icmp eq ptr %0, null
  br i1 %3, label %extcap_free_value.exit, label %4

4:                                                ; preds = %1
  %5 = load ptr, ptr %0, align 8
  %6 = tail call i32 @g_ascii_strcasecmp(ptr noundef %5, ptr noundef nonnull @.str.5)
  %7 = icmp eq i32 %6, 0
  br i1 %7, label %8, label %extcap_free_value.exit

8:                                                ; preds = %4
  %9 = getelementptr inbounds nuw i8, ptr %0, i64 8
  %10 = load ptr, ptr %9, align 8
  %11 = tail call ptr @g_hash_table_lookup(ptr noundef %10, ptr noundef nonnull inttoptr (i64 5 to ptr))
  %12 = icmp eq ptr %11, null
  br i1 %12, label %13, label %15

13:                                               ; preds = %8
  %14 = tail call i32 (i32, ptr, ...) @__printf_chk(i32 noundef 2, ptr noundef nonnull @.str.51)
  br label %extcap_free_value.exit

15:                                               ; preds = %8
  %16 = call i32 (ptr, ptr, ...) @__isoc99_sscanf(ptr noundef nonnull %11, ptr noundef nonnull @.str.31, ptr noundef nonnull %2) #9
  %.not = icmp eq i32 %16, 1
  br i1 %.not, label %19, label %17

17:                                               ; preds = %15
  %18 = call i32 (i32, ptr, ...) @__printf_chk(i32 noundef 2, ptr noundef nonnull @.str.52)
  br label %extcap_free_value.exit

19:                                               ; preds = %15
  %20 = call noalias dereferenceable_or_null(40) ptr @g_malloc0(i64 noundef 40) #8
  %21 = load i32, ptr %2, align 4
  store i32 %21, ptr %20, align 8
  %22 = load ptr, ptr %9, align 8
  %23 = call ptr @g_hash_table_lookup(ptr noundef %22, ptr noundef nonnull inttoptr (i64 7 to ptr))
  %24 = icmp eq ptr %23, null
  br i1 %24, label %25, label %34

25:                                               ; preds = %19
  %26 = icmp eq ptr %20, null
  br i1 %26, label %extcap_free_value.exit, label %27

27:                                               ; preds = %25
  %28 = getelementptr inbounds nuw i8, ptr %20, i64 8
  %29 = load ptr, ptr %28, align 8
  call void @g_free(ptr noundef %29)
  %30 = getelementptr inbounds nuw i8, ptr %20, i64 16
  %31 = load ptr, ptr %30, align 8
  call void @g_free(ptr noundef %31)
  %32 = getelementptr inbounds nuw i8, ptr %20, i64 32
  %33 = load ptr, ptr %32, align 8
  call void @g_free(ptr noundef %33)
  call void @g_free(ptr noundef nonnull %20)
  br label %extcap_free_value.exit

34:                                               ; preds = %19
  %35 = call noalias ptr @g_strdup(ptr noundef nonnull %23)
  %36 = getelementptr inbounds nuw i8, ptr %20, i64 8
  store ptr %35, ptr %36, align 8
  %37 = load ptr, ptr %9, align 8
  %38 = call ptr @g_hash_table_lookup(ptr noundef %37, ptr noundef nonnull inttoptr (i64 3 to ptr))
  %39 = icmp eq ptr %38, null
  br i1 %39, label %40, label %41

40:                                               ; preds = %34
  call fastcc void @extcap_free_value(ptr noundef %20)
  br label %extcap_free_value.exit

41:                                               ; preds = %34
  %42 = call noalias ptr @g_strdup(ptr noundef nonnull %38)
  %43 = getelementptr inbounds nuw i8, ptr %20, i64 16
  store ptr %42, ptr %43, align 8
  %44 = load ptr, ptr %9, align 8
  %45 = call ptr @g_hash_table_lookup(ptr noundef %44, ptr noundef nonnull inttoptr (i64 16 to ptr))
  %.not45 = icmp eq ptr %45, null
  br i1 %.not45, label %49, label %46

46:                                               ; preds = %41
  %47 = call noalias ptr @g_strdup(ptr noundef nonnull %45)
  %48 = getelementptr inbounds nuw i8, ptr %20, i64 32
  store ptr %47, ptr %48, align 8
  br label %49

49:                                               ; preds = %46, %41
  %50 = load ptr, ptr %9, align 8
  %51 = call ptr @g_hash_table_lookup(ptr noundef %50, ptr noundef nonnull inttoptr (i64 6 to ptr))
  %.not46 = icmp eq ptr %51, null
  br i1 %.not46, label %56, label %52

52:                                               ; preds = %49
  %53 = call fastcc zeroext i1 @matches_regex(ptr noundef nonnull %51)
  %54 = getelementptr inbounds nuw i8, ptr %20, i64 25
  %55 = zext i1 %53 to i8
  store i8 %55, ptr %54, align 1
  br label %56

56:                                               ; preds = %52, %49
  %57 = load ptr, ptr %9, align 8
  %58 = call ptr @g_hash_table_lookup(ptr noundef %57, ptr noundef nonnull inttoptr (i64 12 to ptr))
  %.not47 = icmp eq ptr %58, null
  br i1 %.not47, label %extcap_free_value.exit, label %59

59:                                               ; preds = %56
  %60 = call fastcc zeroext i1 @matches_regex(ptr noundef nonnull %58)
  %61 = getelementptr inbounds nuw i8, ptr %20, i64 24
  %62 = zext i1 %60 to i8
  store i8 %62, ptr %61, align 8
  br label %extcap_free_value.exit

extcap_free_value.exit:                           ; preds = %27, %25, %4, %59, %56, %1, %40, %17, %13
  %.0 = phi ptr [ null, %13 ], [ null, %17 ], [ null, %40 ], [ null, %1 ], [ %20, %59 ], [ %20, %56 ], [ null, %4 ], [ null, %25 ], [ null, %27 ]
  call void @llvm.lifetime.end.p0(i64 4, ptr nonnull %2) #9
  ret ptr %.0
}